Certificate:
    Data:
        Version: 3 (0x2)
        Serial Number: 580143453 (0x2294495d)
    Signature Algorithm: ecdsa-with-SHA256
        Issuer: CN=SRK2_sha256_secp521r1_v3_ca
        Validity
            Not Before: Jan  2 19:08:15 2019 GMT
            Not After : Dec 27 19:08:15 2043 GMT
        Subject: CN=CSF2_1_sha256_secp521r1_v3_usr
        Subject Public Key Info:
            Public Key Algorithm: id-ecPublicKey
                Public-Key: (521 bit)
                pub:
                    04:00:9c:78:93:41:a3:2b:3b:b9:57:50:8f:32:5c:
                    10:86:22:a0:5b:bb:22:a0:51:66:a0:b9:84:90:dd:
                    51:04:2f:47:6c:90:df:56:54:1f:4e:6c:45:79:a1:
                    58:1b:7b:4c:ab:82:f4:53:d6:47:f9:b2:21:8e:bb:
                    e1:47:f8:d2:d6:04:60:00:22:8c:72:f1:a7:bf:3b:
                    64:8b:a0:c7:d8:93:7b:97:c1:89:d6:a4:d6:64:fc:
                    2c:7b:e2:d0:e2:21:72:44:c7:e7:e8:0a:1b:2a:3e:
                    ff:d0:35:07:86:99:0f:8d:87:f8:5d:fd:4d:72:aa:
                    c5:53:9e:db:58:50:45:81:26:c7:5c:08:1f
                ASN1 OID: secp521r1
                NIST CURVE: P-521
        X509v3 extensions:
            X509v3 Basic Constraints: 
                CA:FALSE
            Netscape Comment: 
                OpenSSL Generated Certificate
            X509v3 Subject Key Identifier: 
                A0:EC:87:D7:2A:D7:DE:84:14:1D:B2:27:24:F5:DC:20:68:C3:23:17
            X509v3 Authority Key Identifier: 
                keyid:52:07:42:79:CD:94:29:81:82:1F:0D:7C:15:2D:5D:02:81:A3:93:6E

    Signature Algorithm: ecdsa-with-SHA256
         30:81:87:02:41:6b:49:d6:21:b5:fa:ee:74:8a:e9:d0:27:02:
         f4:3b:f1:0e:6d:9f:89:dd:7e:fb:97:32:d3:a6:57:b5:8b:d3:
         0f:8e:99:8a:0e:7d:16:9c:a9:83:93:15:41:e8:2f:13:cd:d8:
         ac:1e:ba:1b:cd:e7:55:a7:ad:fc:84:21:30:bc:e0:00:02:42:
         00:dc:05:e3:cb:dc:aa:cf:42:82:89:34:eb:69:91:f1:9f:17:
         5b:99:58:0c:cc:01:19:d2:c1:18:8f:65:43:0d:65:3e:b1:84:
         6b:bf:8b:49:59:4c:33:54:1b:0b:f9:ad:a4:f2:49:45:af:c4:
         40:07:b4:34:35:55:36:30:80:50:90:94
-----BEGIN CERTIFICATE-----
MIICQzCCAaWgAwIBAgIEIpRJXTAKBggqhkjOPQQDAjAmMSQwIgYDVQQDDBtTUksy
X3NoYTI1Nl9zZWNwNTIxcjFfdjNfY2EwHhcNMTkwMTAyMTkwODE1WhcNNDMxMjI3
MTkwODE1WjApMScwJQYDVQQDDB5DU0YyXzFfc2hhMjU2X3NlY3A1MjFyMV92M191
c3IwgZswEAYHKoZIzj0CAQYFK4EEACMDgYYABACceJNBoys7uVdQjzJcEIYioFu7
IqBRZqC5hJDdUQQvR2yQ31ZUH05sRXmhWBt7TKuC9FPWR/myIY674Uf40tYEYAAi
jHLxp787ZIugx9iTe5fBidak1mT8LHvi0OIhckTH5+gKGyo+/9A1B4aZD42H+F39
TXKqxVOe21hQRYEmx1wIH6N7MHkwCQYDVR0TBAIwADAsBglghkgBhvhCAQ0EHxYd
T3BlblNTTCBHZW5lcmF0ZWQgQ2VydGlmaWNhdGUwHQYDVR0OBBYEFKDsh9cq196E
FB2yJyT13CBowyMXMB8GA1UdIwQYMBaAFFIHQnnNlCmBgh8NfBUtXQKBo5NuMAoG
CCqGSM49BAMCA4GLADCBhwJBa0nWIbX67nSK6dAnAvQ78Q5tn4ndfvuXMtOmV7WL
0w+OmYoOfRacqYOTFUHoLxPN2KweuhvN51WnrfyEITC84AACQgDcBePL3KrPQoKJ
NOtpkfGfF1uZWAzMARnSwRiPZUMNZT6xhGu/i0lZTDNUGwv5raTySUWvxEAHtDQ1
VTYwgFCQlA==
-----END CERTIFICATE-----
