Certificate:
    Data:
        Version: 3 (0x2)
        Serial Number: 580143451 (0x2294495b)
    Signature Algorithm: ecdsa-with-SHA256
        Issuer: CN=SRK1_sha256_secp521r1_v3_ca
        Validity
            Not Before: Jan  2 19:08:15 2019 GMT
            Not After : Dec 27 19:08:15 2043 GMT
        Subject: CN=IMG1_1_sha256_secp521r1_v3_usr
        Subject Public Key Info:
            Public Key Algorithm: id-ecPublicKey
                Public-Key: (521 bit)
                pub:
                    04:00:dd:0d:dd:81:c4:02:17:0c:72:70:71:43:7d:
                    59:ce:7c:69:91:0a:ef:bf:84:0b:83:50:a9:18:f4:
                    a3:45:5b:c0:9c:2b:a1:5b:a7:95:81:97:86:95:a8:
                    ac:46:ad:5a:e2:b2:1f:6e:87:af:b0:16:db:b0:c0:
                    1d:5f:fb:67:5b:a6:19:01:5c:82:0b:8d:b1:86:a7:
                    67:8a:92:a5:7c:0b:07:ae:c6:e7:97:44:db:22:56:
                    ab:e5:8c:e9:db:d7:21:86:1d:ca:30:41:e4:cd:7b:
                    69:4d:4a:18:87:32:b8:c0:63:62:a2:8b:b2:05:29:
                    ee:eb:d1:5e:da:4d:7e:2a:69:a8:4b:5a:21
                ASN1 OID: secp521r1
                NIST CURVE: P-521
        X509v3 extensions:
            X509v3 Basic Constraints: 
                CA:FALSE
            Netscape Comment: 
                OpenSSL Generated Certificate
            X509v3 Subject Key Identifier: 
                70:7C:12:64:09:47:80:16:F3:41:80:CE:D8:28:9D:18:8C:70:C2:4C
            X509v3 Authority Key Identifier: 
                keyid:C7:42:9A:DD:7C:C5:46:80:B3:94:D0:68:1C:79:B2:5A:0F:7E:A4:EB

    Signature Algorithm: ecdsa-with-SHA256
         30:81:88:02:42:01:a4:25:0e:82:39:d1:8e:6c:53:65:e5:d9:
         8e:76:55:cc:99:33:4d:7d:e7:d3:cf:f8:5c:17:de:a8:43:0e:
         78:2f:0f:93:ca:d4:11:e8:d3:68:e9:b4:b3:0b:74:6b:e7:e9:
         b0:a2:35:1d:a2:46:e2:72:5d:3d:06:47:67:a4:e4:5f:17:02:
         42:01:b4:c0:a1:0c:55:2f:2a:5b:92:e0:12:80:7f:c7:dd:b4:
         4d:af:c8:c7:85:f4:f4:1c:97:b7:a7:3c:97:28:3c:e3:6c:26:
         fe:87:c3:e9:39:83:ec:63:12:07:d6:7b:d5:e4:c9:6f:6b:23:
         36:e7:42:45:82:ca:c8:2a:19:75:32:bf:70
-----BEGIN CERTIFICATE-----
MIICRDCCAaWgAwIBAgIEIpRJWzAKBggqhkjOPQQDAjAmMSQwIgYDVQQDDBtTUksx
X3NoYTI1Nl9zZWNwNTIxcjFfdjNfY2EwHhcNMTkwMTAyMTkwODE1WhcNNDMxMjI3
MTkwODE1WjApMScwJQYDVQQDDB5JTUcxXzFfc2hhMjU2X3NlY3A1MjFyMV92M191
c3IwgZswEAYHKoZIzj0CAQYFK4EEACMDgYYABADdDd2BxAIXDHJwcUN9Wc58aZEK
77+EC4NQqRj0o0VbwJwroVunlYGXhpWorEatWuKyH26Hr7AW27DAHV/7Z1umGQFc
gguNsYanZ4qSpXwLB67G55dE2yJWq+WM6dvXIYYdyjBB5M17aU1KGIcyuMBjYqKL
sgUp7uvRXtpNfippqEtaIaN7MHkwCQYDVR0TBAIwADAsBglghkgBhvhCAQ0EHxYd
T3BlblNTTCBHZW5lcmF0ZWQgQ2VydGlmaWNhdGUwHQYDVR0OBBYEFHB8EmQJR4AW
80GAztgonRiMcMJMMB8GA1UdIwQYMBaAFMdCmt18xUaAs5TQaBx5sloPfqTrMAoG
CCqGSM49BAMCA4GMADCBiAJCAaQlDoI50Y5sU2Xl2Y52VcyZM01959PP+FwX3qhD
DngvD5PK1BHo02jptLMLdGvn6bCiNR2iRuJyXT0GR2ek5F8XAkIBtMChDFUvKluS
4BKAf8fdtE2vyMeF9PQcl7enPJcoPONsJv6Hw+k5g+xjEgfWe9XkyW9rIzbnQkWC
ysgqGXUyv3A=
-----END CERTIFICATE-----
