Certificate:
    Data:
        Version: 3 (0x2)
        Serial Number: 580143454 (0x2294495e)
    Signature Algorithm: ecdsa-with-SHA256
        Issuer: CN=SRK2_sha256_secp521r1_v3_ca
        Validity
            Not Before: Jan  2 19:08:15 2019 GMT
            Not After : Dec 27 19:08:15 2043 GMT
        Subject: CN=IMG2_1_sha256_secp521r1_v3_usr
        Subject Public Key Info:
            Public Key Algorithm: id-ecPublicKey
                Public-Key: (521 bit)
                pub:
                    04:00:14:b3:70:7e:a8:2f:23:cc:9d:85:e3:13:5d:
                    af:02:b2:09:1d:18:72:fb:52:12:40:b9:96:88:fc:
                    82:93:46:e2:e2:b3:36:8f:00:95:3e:7e:1e:e2:76:
                    f0:8f:bb:9f:1a:a6:fe:50:7c:3b:57:de:df:6c:2e:
                    e8:35:ff:16:d8:a3:af:00:12:80:95:3b:26:62:ba:
                    e2:00:24:fc:3c:f9:a8:05:03:c5:7a:9f:bd:84:63:
                    7c:e8:2e:ae:d4:55:15:da:59:39:ef:7a:3a:54:a6:
                    47:01:5a:18:08:6e:2d:43:8f:db:4f:36:a3:e9:47:
                    df:95:63:2f:95:e5:8a:d3:0a:fa:8b:a2:0a
                ASN1 OID: secp521r1
                NIST CURVE: P-521
        X509v3 extensions:
            X509v3 Basic Constraints: 
                CA:FALSE
            Netscape Comment: 
                OpenSSL Generated Certificate
            X509v3 Subject Key Identifier: 
                4F:98:D0:2B:DF:36:E3:10:50:18:A7:AE:57:BF:98:49:ED:D4:0B:60
            X509v3 Authority Key Identifier: 
                keyid:52:07:42:79:CD:94:29:81:82:1F:0D:7C:15:2D:5D:02:81:A3:93:6E

    Signature Algorithm: ecdsa-with-SHA256
         30:81:88:02:42:00:8c:b5:60:c6:da:a0:58:31:c0:91:7a:78:
         97:39:5a:eb:15:51:46:7b:9d:6e:da:04:45:92:9e:c5:ff:e4:
         88:fd:3f:0b:cb:c3:d1:15:45:dd:57:e4:5d:c9:79:32:7b:83:
         cf:62:bb:b2:77:69:a3:e3:0a:65:24:2f:ef:64:f0:63:75:02:
         42:01:24:c6:97:69:c3:d5:f4:9b:38:20:82:71:f9:01:db:b5:
         53:41:cb:29:63:a7:51:cc:b7:58:d4:33:ec:5f:b3:3f:53:9b:
         de:f4:a2:2a:82:91:0d:e9:40:bf:19:2e:9a:5a:dd:76:51:09:
         95:f4:57:7b:39:a4:ef:ac:49:3f:d8:e3:0a
-----BEGIN CERTIFICATE-----
MIICRDCCAaWgAwIBAgIEIpRJXjAKBggqhkjOPQQDAjAmMSQwIgYDVQQDDBtTUksy
X3NoYTI1Nl9zZWNwNTIxcjFfdjNfY2EwHhcNMTkwMTAyMTkwODE1WhcNNDMxMjI3
MTkwODE1WjApMScwJQYDVQQDDB5JTUcyXzFfc2hhMjU2X3NlY3A1MjFyMV92M191
c3IwgZswEAYHKoZIzj0CAQYFK4EEACMDgYYABAAUs3B+qC8jzJ2F4xNdrwKyCR0Y
cvtSEkC5loj8gpNG4uKzNo8AlT5+HuJ28I+7nxqm/lB8O1fe32wu6DX/FtijrwAS
gJU7JmK64gAk/Dz5qAUDxXqfvYRjfOgurtRVFdpZOe96OlSmRwFaGAhuLUOP2082
o+lH35VjL5XlitMK+ouiCqN7MHkwCQYDVR0TBAIwADAsBglghkgBhvhCAQ0EHxYd
T3BlblNTTCBHZW5lcmF0ZWQgQ2VydGlmaWNhdGUwHQYDVR0OBBYEFE+Y0CvfNuMQ
UBinrle/mEnt1AtgMB8GA1UdIwQYMBaAFFIHQnnNlCmBgh8NfBUtXQKBo5NuMAoG
CCqGSM49BAMCA4GMADCBiAJCAIy1YMbaoFgxwJF6eJc5WusVUUZ7nW7aBEWSnsX/
5Ij9PwvLw9EVRd1X5F3JeTJ7g89iu7J3aaPjCmUkL+9k8GN1AkIBJMaXacPV9Js4
IIJx+QHbtVNByyljp1HMt1jUM+xfsz9Tm970oiqCkQ3pQL8ZLppa3XZRCZX0V3s5
pO+sST/Y4wo=
-----END CERTIFICATE-----
