Certificate:
    Data:
        Version: 3 (0x2)
        Serial Number: 580143457 (0x22944961)
    Signature Algorithm: ecdsa-with-SHA256
        Issuer: CN=SRK3_sha256_secp521r1_v3_ca
        Validity
            Not Before: Jan  2 19:08:15 2019 GMT
            Not After : Dec 27 19:08:15 2043 GMT
        Subject: CN=IMG3_1_sha256_secp521r1_v3_usr
        Subject Public Key Info:
            Public Key Algorithm: id-ecPublicKey
                Public-Key: (521 bit)
                pub:
                    04:01:ec:79:38:7b:e0:84:d2:de:1b:86:12:ee:6b:
                    32:c0:23:5b:a5:dc:f6:db:11:11:6e:ad:fd:23:61:
                    7f:4f:74:03:b9:33:fb:60:43:09:e0:e5:6f:8f:df:
                    6a:e6:19:e6:87:b6:1f:28:ed:ce:d6:77:83:3c:d5:
                    a0:e6:8c:72:17:eb:5b:01:b6:4b:d3:21:12:f8:18:
                    22:97:68:ca:2b:08:d3:cc:f3:8e:18:e3:76:0c:52:
                    f9:fc:07:ab:cf:3a:2a:64:8a:cd:ae:9b:c7:d3:8a:
                    52:1b:9f:81:0e:61:04:1d:79:99:0e:cb:70:f3:4f:
                    f0:63:d0:ea:45:12:7e:0c:d9:d9:d7:e6:45
                ASN1 OID: secp521r1
                NIST CURVE: P-521
        X509v3 extensions:
            X509v3 Basic Constraints: 
                CA:FALSE
            Netscape Comment: 
                OpenSSL Generated Certificate
            X509v3 Subject Key Identifier: 
                7C:E6:34:25:C7:B4:35:A6:A9:B3:B8:E0:29:A6:B3:A7:21:13:1F:04
            X509v3 Authority Key Identifier: 
                keyid:88:3F:74:7D:D0:84:31:61:D0:3A:6D:49:9E:6B:C3:64:87:E7:7D:0B

    Signature Algorithm: ecdsa-with-SHA256
         30:81:87:02:41:19:87:23:c7:5d:16:f3:b5:6c:8d:23:91:f5:
         d7:ca:63:15:cf:89:28:3f:1b:5b:86:1b:42:ad:7d:8e:f1:e9:
         a9:e3:da:6e:fb:03:90:70:88:56:d2:5c:2e:db:bb:a6:a3:37:
         ab:ef:fc:bc:95:64:fd:0d:79:7a:91:45:83:5d:d6:e6:02:42:
         00:ca:2b:1a:29:4f:34:78:5d:56:a0:70:c9:e0:5e:f2:1a:a5:
         f1:3c:c6:13:17:63:7d:97:bc:46:e5:96:15:a6:8f:68:af:c3:
         4c:9d:4b:13:c1:ba:84:19:5b:81:59:8f:7d:1d:ca:7a:80:45:
         be:95:49:e7:8d:a5:e4:96:c4:6e:0f:21
-----BEGIN CERTIFICATE-----
MIICQzCCAaWgAwIBAgIEIpRJYTAKBggqhkjOPQQDAjAmMSQwIgYDVQQDDBtTUksz
X3NoYTI1Nl9zZWNwNTIxcjFfdjNfY2EwHhcNMTkwMTAyMTkwODE1WhcNNDMxMjI3
MTkwODE1WjApMScwJQYDVQQDDB5JTUczXzFfc2hhMjU2X3NlY3A1MjFyMV92M191
c3IwgZswEAYHKoZIzj0CAQYFK4EEACMDgYYABAHseTh74ITS3huGEu5rMsAjW6Xc
9tsREW6t/SNhf090A7kz+2BDCeDlb4/fauYZ5oe2HyjtztZ3gzzVoOaMchfrWwG2
S9MhEvgYIpdoyisI08zzjhjjdgxS+fwHq886KmSKza6bx9OKUhufgQ5hBB15mQ7L
cPNP8GPQ6kUSfgzZ2dfmRaN7MHkwCQYDVR0TBAIwADAsBglghkgBhvhCAQ0EHxYd
T3BlblNTTCBHZW5lcmF0ZWQgQ2VydGlmaWNhdGUwHQYDVR0OBBYEFHzmNCXHtDWm
qbO44Cmms6chEx8EMB8GA1UdIwQYMBaAFIg/dH3QhDFh0DptSZ5rw2SH530LMAoG
CCqGSM49BAMCA4GLADCBhwJBGYcjx10W87VsjSOR9dfKYxXPiSg/G1uGG0KtfY7x
6anj2m77A5BwiFbSXC7bu6ajN6vv/LyVZP0NeXqRRYNd1uYCQgDKKxopTzR4XVag
cMngXvIapfE8xhMXY32XvEbllhWmj2ivw0ydSxPBuoQZW4FZj30dynqARb6VSeeN
peSWxG4PIQ==
-----END CERTIFICATE-----
