Certificate:
    Data:
        Version: 3 (0x2)
        Serial Number: 580143452 (0x2294495c)
    Signature Algorithm: ecdsa-with-SHA256
        Issuer: CN=CA1_sha256_secp521r1_v3_ca
        Validity
            Not Before: Jan  2 19:08:15 2019 GMT
            Not After : Dec 27 19:08:15 2043 GMT
        Subject: CN=SRK2_sha256_secp521r1_v3_ca
        Subject Public Key Info:
            Public Key Algorithm: id-ecPublicKey
                Public-Key: (521 bit)
                pub:
                    04:00:fa:3d:f4:a0:b0:0e:b1:d9:96:fb:45:70:05:
                    b5:a5:e0:b6:70:e5:b2:c0:97:4f:8c:0e:c5:2c:67:
                    ea:5f:bb:01:db:52:91:05:df:db:7d:6d:21:57:02:
                    06:70:6c:a6:b4:d5:ee:5a:19:01:4a:a1:4c:12:8a:
                    01:86:07:fe:5a:4f:c2:01:37:55:4d:61:eb:a8:a6:
                    35:ab:a5:62:16:a9:e4:1b:57:7d:54:69:1d:58:55:
                    11:74:df:47:a6:8f:75:7b:40:d6:b3:c3:72:95:be:
                    06:43:c4:7c:9e:a7:a4:38:13:ad:d0:6e:dc:33:1b:
                    3c:ef:4e:29:fa:e1:b0:dc:f2:2a:fd:2a:bc
                ASN1 OID: secp521r1
                NIST CURVE: P-521
        X509v3 extensions:
            X509v3 Subject Key Identifier: 
                52:07:42:79:CD:94:29:81:82:1F:0D:7C:15:2D:5D:02:81:A3:93:6E
            X509v3 Authority Key Identifier: 
                keyid:71:1B:92:1A:EC:FF:2A:E7:F0:6F:B6:CB:9C:E3:AB:AE:19:DF:6D:21
                DirName:/CN=CA1_sha256_secp521r1_v3_ca
                serial:9F:52:89:D2:57:F8:6B:56

            X509v3 Basic Constraints: critical
                CA:TRUE
            X509v3 Key Usage: 
                Certificate Sign
    Signature Algorithm: ecdsa-with-SHA256
         30:81:87:02:41:6a:fa:a9:df:ed:f3:4f:2c:c8:37:f1:20:57:
         d0:c0:9b:24:50:95:64:c9:3f:af:c9:46:9b:c0:c8:fa:90:c6:
         76:35:62:bf:09:1e:9c:73:2f:3b:8e:cc:51:46:72:b5:19:b7:
         b5:e1:d2:87:27:e4:71:12:74:fd:ad:9b:f4:26:bf:a5:02:42:
         01:8d:27:f1:02:42:d3:f1:b5:25:bc:96:64:67:73:67:db:8a:
         5c:29:6f:ee:6d:f6:f3:4c:4e:d1:86:91:a0:1e:91:a8:44:2f:
         4e:39:e5:86:1d:2b:a3:61:95:02:64:4b:87:47:fb:7c:6e:9c:
         fb:b1:f3:91:61:89:be:a9:b3:31:6a:49
-----BEGIN CERTIFICATE-----
MIICXDCCAb6gAwIBAgIEIpRJXDAKBggqhkjOPQQDAjAlMSMwIQYDVQQDFBpDQTFf
c2hhMjU2X3NlY3A1MjFyMV92M19jYTAeFw0xOTAxMDIxOTA4MTVaFw00MzEyMjcx
OTA4MTVaMCYxJDAiBgNVBAMMG1NSSzJfc2hhMjU2X3NlY3A1MjFyMV92M19jYTCB
mzAQBgcqhkjOPQIBBgUrgQQAIwOBhgAEAPo99KCwDrHZlvtFcAW1peC2cOWywJdP
jA7FLGfqX7sB21KRBd/bfW0hVwIGcGymtNXuWhkBSqFMEooBhgf+Wk/CATdVTWHr
qKY1q6ViFqnkG1d9VGkdWFURdN9Hpo91e0DWs8Nylb4GQ8R8nqekOBOt0G7cMxs8
704p+uGw3PIq/Sq8o4GXMIGUMB0GA1UdDgQWBBRSB0J5zZQpgYIfDXwVLV0CgaOT
bjBVBgNVHSMETjBMgBRxG5Ia7P8q5/Bvtsuc46uuGd9tIaEppCcwJTEjMCEGA1UE
AxQaQ0ExX3NoYTI1Nl9zZWNwNTIxcjFfdjNfY2GCCQCfUonSV/hrVjAPBgNVHRMB
Af8EBTADAQH/MAsGA1UdDwQEAwICBDAKBggqhkjOPQQDAgOBiwAwgYcCQWr6qd/t
808syDfxIFfQwJskUJVkyT+vyUabwMj6kMZ2NWK/CR6ccy87jsxRRnK1Gbe14dKH
J+RxEnT9rZv0Jr+lAkIBjSfxAkLT8bUlvJZkZ3Nn24pcKW/ubfbzTE7RhpGgHpGo
RC9OOeWGHSujYZUCZEuHR/t8bpz7sfORYYm+qbMxakk=
-----END CERTIFICATE-----
