Certificate:
    Data:
        Version: 3 (0x2)
        Serial Number: 580143455 (0x2294495f)
    Signature Algorithm: ecdsa-with-SHA256
        Issuer: CN=CA1_sha256_secp521r1_v3_ca
        Validity
            Not Before: Jan  2 19:08:15 2019 GMT
            Not After : Dec 27 19:08:15 2043 GMT
        Subject: CN=SRK3_sha256_secp521r1_v3_ca
        Subject Public Key Info:
            Public Key Algorithm: id-ecPublicKey
                Public-Key: (521 bit)
                pub:
                    04:01:89:c4:87:82:2d:67:2d:9f:55:f6:a7:97:1b:
                    1d:bb:8f:65:98:b7:30:53:0f:c8:ac:61:2d:36:76:
                    ca:d0:bd:7b:72:81:f9:fc:f1:06:45:2a:e2:d1:6b:
                    d9:23:c9:12:1f:dd:cc:7e:4b:aa:66:5b:50:73:f3:
                    10:51:29:75:4c:9d:83:00:52:96:d7:e5:49:65:58:
                    31:c6:b7:70:9e:0a:c5:27:7f:24:1b:24:c2:e3:45:
                    10:e2:2a:11:15:2a:f3:2c:44:87:42:f9:a5:44:7d:
                    7c:d9:22:e6:98:cd:40:b1:c8:03:d6:af:a1:fc:35:
                    00:c0:34:e1:5b:47:5f:e2:b1:4a:b0:57:8e
                ASN1 OID: secp521r1
                NIST CURVE: P-521
        X509v3 extensions:
            X509v3 Subject Key Identifier: 
                88:3F:74:7D:D0:84:31:61:D0:3A:6D:49:9E:6B:C3:64:87:E7:7D:0B
            X509v3 Authority Key Identifier: 
                keyid:71:1B:92:1A:EC:FF:2A:E7:F0:6F:B6:CB:9C:E3:AB:AE:19:DF:6D:21
                DirName:/CN=CA1_sha256_secp521r1_v3_ca
                serial:9F:52:89:D2:57:F8:6B:56

            X509v3 Basic Constraints: critical
                CA:TRUE
            X509v3 Key Usage: 
                Certificate Sign
    Signature Algorithm: ecdsa-with-SHA256
         30:81:88:02:42:01:ef:05:e3:3e:49:ba:69:b8:69:4f:5f:44:
         b5:dc:66:22:88:39:42:98:d7:84:9d:74:bd:f1:8f:ed:8a:f0:
         06:6e:a5:17:20:81:16:1e:20:cd:39:0c:1a:98:bc:22:6f:20:
         a2:07:06:a7:56:16:8b:38:72:d3:72:97:5f:b1:e5:3a:2c:02:
         42:01:d0:d3:df:05:95:04:d3:43:60:ae:f4:e0:68:8e:72:53:
         ed:7a:0f:16:51:2f:f2:eb:30:e1:08:4c:2e:c6:a6:de:3c:84:
         19:4c:da:1f:14:89:98:18:51:bf:20:57:6c:9a:4b:b5:54:83:
         2c:c0:91:c1:85:dd:a0:d9:0a:e0:31:bf:5d
-----BEGIN CERTIFICATE-----
MIICXTCCAb6gAwIBAgIEIpRJXzAKBggqhkjOPQQDAjAlMSMwIQYDVQQDFBpDQTFf
c2hhMjU2X3NlY3A1MjFyMV92M19jYTAeFw0xOTAxMDIxOTA4MTVaFw00MzEyMjcx
OTA4MTVaMCYxJDAiBgNVBAMMG1NSSzNfc2hhMjU2X3NlY3A1MjFyMV92M19jYTCB
mzAQBgcqhkjOPQIBBgUrgQQAIwOBhgAEAYnEh4ItZy2fVfanlxsdu49lmLcwUw/I
rGEtNnbK0L17coH5/PEGRSri0WvZI8kSH93MfkuqZltQc/MQUSl1TJ2DAFKW1+VJ
ZVgxxrdwngrFJ38kGyTC40UQ4ioRFSrzLESHQvmlRH182SLmmM1AscgD1q+h/DUA
wDThW0df4rFKsFeOo4GXMIGUMB0GA1UdDgQWBBSIP3R90IQxYdA6bUmea8Nkh+d9
CzBVBgNVHSMETjBMgBRxG5Ia7P8q5/Bvtsuc46uuGd9tIaEppCcwJTEjMCEGA1UE
AxQaQ0ExX3NoYTI1Nl9zZWNwNTIxcjFfdjNfY2GCCQCfUonSV/hrVjAPBgNVHRMB
Af8EBTADAQH/MAsGA1UdDwQEAwICBDAKBggqhkjOPQQDAgOBjAAwgYgCQgHvBeM+
SbppuGlPX0S13GYiiDlCmNeEnXS98Y/tivAGbqUXIIEWHiDNOQwamLwibyCiBwan
VhaLOHLTcpdfseU6LAJCAdDT3wWVBNNDYK704GiOclPteg8WUS/y6zDhCEwuxqbe
PIQZTNofFImYGFG/IFdsmku1VIMswJHBhd2g2QrgMb9d
-----END CERTIFICATE-----
