Certificate:
    Data:
        Version: 3 (0x2)
        Serial Number: 580143456 (0x22944960)
    Signature Algorithm: ecdsa-with-SHA256
        Issuer: CN=SRK3_sha256_secp521r1_v3_ca
        Validity
            Not Before: Jan  2 19:08:15 2019 GMT
            Not After : Dec 27 19:08:15 2043 GMT
        Subject: CN=CSF3_1_sha256_secp521r1_v3_usr
        Subject Public Key Info:
            Public Key Algorithm: id-ecPublicKey
                Public-Key: (521 bit)
                pub:
                    04:01:81:a2:df:cb:ec:49:cc:f4:53:a2:e1:34:f1:
                    29:a5:7c:73:1a:e5:14:7e:fd:a7:43:c9:f7:b6:b3:
                    75:ba:a6:38:17:04:f0:3a:4a:04:74:d4:24:d9:57:
                    08:e8:a5:5f:7f:ad:b8:47:8f:e6:33:90:4f:c0:e8:
                    51:6d:9d:0d:a3:22:2b:00:d5:bc:41:28:0a:db:94:
                    0f:f3:33:87:f9:eb:56:a2:0c:b2:6a:b9:0e:26:84:
                    a4:3c:6f:f0:04:5e:fd:df:a5:3b:19:00:0e:28:83:
                    c2:9c:0d:cb:b2:5d:ce:03:e9:cb:c7:28:58:38:3f:
                    8b:5d:e1:e2:98:ff:6f:48:d2:66:4a:45:5c
                ASN1 OID: secp521r1
                NIST CURVE: P-521
        X509v3 extensions:
            X509v3 Basic Constraints: 
                CA:FALSE
            Netscape Comment: 
                OpenSSL Generated Certificate
            X509v3 Subject Key Identifier: 
                8F:46:5C:0E:AF:A6:0F:88:0E:1E:17:46:28:BB:15:43:CF:D8:C7:8D
            X509v3 Authority Key Identifier: 
                keyid:88:3F:74:7D:D0:84:31:61:D0:3A:6D:49:9E:6B:C3:64:87:E7:7D:0B

    Signature Algorithm: ecdsa-with-SHA256
         30:81:88:02:42:01:f8:a3:ee:1f:36:ff:de:85:48:cf:1d:49:
         87:98:b8:84:ba:74:31:65:d0:41:4a:5f:d9:37:d2:aa:59:bf:
         a7:8f:be:fe:e5:4c:44:b7:26:ae:0d:85:61:ce:33:2d:96:5c:
         27:a4:59:a2:95:de:9b:63:9e:82:97:3f:55:a0:09:15:46:02:
         42:00:96:be:1f:14:b7:45:1d:bb:0c:ea:c8:af:6a:2f:a6:8e:
         ed:22:a8:c4:67:e2:5f:74:4c:83:6a:bc:27:d2:4b:46:28:0d:
         db:40:f4:41:03:eb:e1:a8:ba:fc:a6:2e:62:60:17:4d:bd:84:
         1d:79:65:3d:08:1a:4c:74:0e:6d:7f:ff:3b
-----BEGIN CERTIFICATE-----
MIICRDCCAaWgAwIBAgIEIpRJYDAKBggqhkjOPQQDAjAmMSQwIgYDVQQDDBtTUksz
X3NoYTI1Nl9zZWNwNTIxcjFfdjNfY2EwHhcNMTkwMTAyMTkwODE1WhcNNDMxMjI3
MTkwODE1WjApMScwJQYDVQQDDB5DU0YzXzFfc2hhMjU2X3NlY3A1MjFyMV92M191
c3IwgZswEAYHKoZIzj0CAQYFK4EEACMDgYYABAGBot/L7EnM9FOi4TTxKaV8cxrl
FH79p0PJ97azdbqmOBcE8DpKBHTUJNlXCOilX3+tuEeP5jOQT8DoUW2dDaMiKwDV
vEEoCtuUD/Mzh/nrVqIMsmq5DiaEpDxv8ARe/d+lOxkADiiDwpwNy7JdzgPpy8co
WDg/i13h4pj/b0jSZkpFXKN7MHkwCQYDVR0TBAIwADAsBglghkgBhvhCAQ0EHxYd
T3BlblNTTCBHZW5lcmF0ZWQgQ2VydGlmaWNhdGUwHQYDVR0OBBYEFI9GXA6vpg+I
Dh4XRii7FUPP2MeNMB8GA1UdIwQYMBaAFIg/dH3QhDFh0DptSZ5rw2SH530LMAoG
CCqGSM49BAMCA4GMADCBiAJCAfij7h82/96FSM8dSYeYuIS6dDFl0EFKX9k30qpZ
v6ePvv7lTES3Jq4NhWHOMy2WXCekWaKV3ptjnoKXP1WgCRVGAkIAlr4fFLdFHbsM
6sivai+mju0iqMRn4l90TINqvCfSS0YoDdtA9EED6+GouvymLmJgF029hB15ZT0I
Gkx0Dm1//zs=
-----END CERTIFICATE-----
