Certificate:
    Data:
        Version: 3 (0x2)
        Serial Number: 580143450 (0x2294495a)
    Signature Algorithm: ecdsa-with-SHA256
        Issuer: CN=SRK1_sha256_secp521r1_v3_ca
        Validity
            Not Before: Jan  2 19:08:15 2019 GMT
            Not After : Dec 27 19:08:15 2043 GMT
        Subject: CN=CSF1_1_sha256_secp521r1_v3_usr
        Subject Public Key Info:
            Public Key Algorithm: id-ecPublicKey
                Public-Key: (521 bit)
                pub:
                    04:01:1d:c9:73:44:6a:a7:2b:3d:46:65:3e:d3:5d:
                    76:98:73:83:79:47:c9:c5:7f:40:ad:32:d8:04:73:
                    88:e7:f5:20:ed:5b:61:44:cb:15:61:37:1d:7a:c0:
                    89:5d:34:b0:f7:53:62:13:c7:df:76:f0:0c:54:45:
                    76:48:b1:fa:64:07:92:00:db:3b:04:79:2a:3e:b3:
                    56:a5:e1:bc:77:40:4c:6c:96:54:5e:4c:f2:ee:dd:
                    5d:33:48:a6:7f:84:02:77:2e:64:fd:3e:a7:02:58:
                    53:01:cd:e0:09:14:50:16:06:d4:13:99:4d:f8:c6:
                    62:1e:b8:79:87:35:86:e6:da:cd:f8:26:6f
                ASN1 OID: secp521r1
                NIST CURVE: P-521
        X509v3 extensions:
            X509v3 Basic Constraints: 
                CA:FALSE
            Netscape Comment: 
                OpenSSL Generated Certificate
            X509v3 Subject Key Identifier: 
                A8:F7:94:4B:4B:5F:BF:36:7F:E1:81:F4:B1:EB:17:B8:3A:1E:C6:C0
            X509v3 Authority Key Identifier: 
                keyid:C7:42:9A:DD:7C:C5:46:80:B3:94:D0:68:1C:79:B2:5A:0F:7E:A4:EB

    Signature Algorithm: ecdsa-with-SHA256
         30:81:87:02:42:00:f2:1d:80:ad:82:f6:b0:ad:28:b9:cc:d1:
         ed:71:97:3f:85:a5:e7:5b:c1:6c:a2:f4:63:7c:94:22:72:36:
         ff:56:d5:31:c0:02:ac:2b:2b:a0:3c:95:1d:be:d4:56:21:1f:
         7a:89:0e:a5:36:06:35:8e:51:1f:bb:d0:86:1a:64:1d:7e:02:
         41:7f:74:28:2e:ad:38:4a:6c:3e:d9:97:e5:3d:75:51:77:42:
         79:5e:c8:6b:9e:20:57:1a:e4:de:96:bc:73:65:08:d7:17:cb:
         06:dc:a2:08:f7:44:17:60:c6:17:95:70:d8:ba:92:7b:b4:98:
         f5:04:8e:66:f2:aa:47:5d:19:1e:5a:6a
-----BEGIN CERTIFICATE-----
MIICQzCCAaWgAwIBAgIEIpRJWjAKBggqhkjOPQQDAjAmMSQwIgYDVQQDDBtTUksx
X3NoYTI1Nl9zZWNwNTIxcjFfdjNfY2EwHhcNMTkwMTAyMTkwODE1WhcNNDMxMjI3
MTkwODE1WjApMScwJQYDVQQDDB5DU0YxXzFfc2hhMjU2X3NlY3A1MjFyMV92M191
c3IwgZswEAYHKoZIzj0CAQYFK4EEACMDgYYABAEdyXNEaqcrPUZlPtNddphzg3lH
ycV/QK0y2ARziOf1IO1bYUTLFWE3HXrAiV00sPdTYhPH33bwDFRFdkix+mQHkgDb
OwR5Kj6zVqXhvHdATGyWVF5M8u7dXTNIpn+EAncuZP0+pwJYUwHN4AkUUBYG1BOZ
TfjGYh64eYc1hubazfgmb6N7MHkwCQYDVR0TBAIwADAsBglghkgBhvhCAQ0EHxYd
T3BlblNTTCBHZW5lcmF0ZWQgQ2VydGlmaWNhdGUwHQYDVR0OBBYEFKj3lEtLX782
f+GB9LHrF7g6HsbAMB8GA1UdIwQYMBaAFMdCmt18xUaAs5TQaBx5sloPfqTrMAoG
CCqGSM49BAMCA4GLADCBhwJCAPIdgK2C9rCtKLnM0e1xlz+FpedbwWyi9GN8lCJy
Nv9W1THAAqwrK6A8lR2+1FYhH3qJDqU2BjWOUR+70IYaZB1+AkF/dCgurThKbD7Z
l+U9dVF3QnleyGueIFca5N6WvHNlCNcXywbcogj3RBdgxheVcNi6knu0mPUEjmby
qkddGR5aag==
-----END CERTIFICATE-----
