Certificate:
    Data:
        Version: 3 (0x2)
        Serial Number: 580143460 (0x22944964)
    Signature Algorithm: ecdsa-with-SHA256
        Issuer: CN=SRK4_sha256_secp521r1_v3_ca
        Validity
            Not Before: Jan  2 19:08:15 2019 GMT
            Not After : Dec 27 19:08:15 2043 GMT
        Subject: CN=IMG4_1_sha256_secp521r1_v3_usr
        Subject Public Key Info:
            Public Key Algorithm: id-ecPublicKey
                Public-Key: (521 bit)
                pub:
                    04:01:d1:d2:52:0d:8d:3b:8c:1e:8d:d7:1a:e1:39:
                    e3:ef:ec:6b:75:b3:66:89:b0:d7:d7:15:91:e8:2e:
                    76:4b:d1:ba:7a:c0:c8:b7:69:35:66:3b:b2:4a:e5:
                    b6:26:81:88:02:b1:7e:7d:d4:98:6b:4c:45:5b:c3:
                    b1:97:30:3f:d7:95:85:00:21:5a:de:73:41:4e:c2:
                    d0:97:a2:83:67:c3:78:fa:07:7e:09:52:1f:96:85:
                    65:1a:9b:da:f2:2d:34:bf:77:79:9a:f0:a6:cd:47:
                    a0:5e:ce:79:a2:bf:27:64:b3:d6:56:3c:c2:ec:c1:
                    33:25:67:43:70:0c:f4:24:50:57:d2:8c:e2
                ASN1 OID: secp521r1
                NIST CURVE: P-521
        X509v3 extensions:
            X509v3 Basic Constraints: 
                CA:FALSE
            Netscape Comment: 
                OpenSSL Generated Certificate
            X509v3 Subject Key Identifier: 
                A6:E0:D8:7D:01:5F:8B:23:A3:52:E7:18:7A:9D:B2:E2:4D:E2:46:10
            X509v3 Authority Key Identifier: 
                keyid:36:E8:91:C5:F9:13:6F:B8:E7:CC:CD:4C:DE:BC:4F:F8:65:C0:F6:EB

    Signature Algorithm: ecdsa-with-SHA256
         30:81:88:02:42:01:ae:25:52:04:19:4b:58:41:11:18:f2:c8:
         33:71:17:96:c3:01:88:f8:7b:75:f0:8b:2f:db:3a:0b:3d:45:
         d8:ad:5f:ad:c5:8c:8b:67:eb:70:b4:0a:df:af:b0:9f:b8:47:
         15:67:f2:81:db:53:38:6d:f2:dc:5b:0b:09:21:bd:a9:9f:02:
         42:01:6b:56:6d:da:0b:17:da:43:06:3e:90:80:de:29:96:2f:
         80:04:b6:b2:db:5a:2c:50:5e:d5:21:94:2f:96:df:66:18:a2:
         8b:1e:1d:b8:6e:cf:b3:e7:e8:53:1b:7b:dd:24:8b:eb:9e:fb:
         ff:21:83:f8:f8:2a:c7:33:fb:dd:39:8e:81
-----BEGIN CERTIFICATE-----
MIICRDCCAaWgAwIBAgIEIpRJZDAKBggqhkjOPQQDAjAmMSQwIgYDVQQDDBtTUks0
X3NoYTI1Nl9zZWNwNTIxcjFfdjNfY2EwHhcNMTkwMTAyMTkwODE1WhcNNDMxMjI3
MTkwODE1WjApMScwJQYDVQQDDB5JTUc0XzFfc2hhMjU2X3NlY3A1MjFyMV92M191
c3IwgZswEAYHKoZIzj0CAQYFK4EEACMDgYYABAHR0lINjTuMHo3XGuE54+/sa3Wz
Zomw19cVkegudkvRunrAyLdpNWY7skrltiaBiAKxfn3UmGtMRVvDsZcwP9eVhQAh
Wt5zQU7C0Jeig2fDePoHfglSH5aFZRqb2vItNL93eZrwps1HoF7OeaK/J2Sz1lY8
wuzBMyVnQ3AM9CRQV9KM4qN7MHkwCQYDVR0TBAIwADAsBglghkgBhvhCAQ0EHxYd
T3BlblNTTCBHZW5lcmF0ZWQgQ2VydGlmaWNhdGUwHQYDVR0OBBYEFKbg2H0BX4sj
o1LnGHqdsuJN4kYQMB8GA1UdIwQYMBaAFDbokcX5E2+458zNTN68T/hlwPbrMAoG
CCqGSM49BAMCA4GMADCBiAJCAa4lUgQZS1hBERjyyDNxF5bDAYj4e3Xwiy/bOgs9
RditX63FjItn63C0Ct+vsJ+4RxVn8oHbUzht8txbCwkhvamfAkIBa1Zt2gsX2kMG
PpCA3imWL4AEtrLbWixQXtUhlC+W32YYooseHbhuz7Pn6FMbe90ki+ue+/8hg/j4
Kscz+905joE=
-----END CERTIFICATE-----
