Certificate:
    Data:
        Version: 3 (0x2)
        Serial Number: 580143459 (0x22944963)
    Signature Algorithm: ecdsa-with-SHA256
        Issuer: CN=SRK4_sha256_secp521r1_v3_ca
        Validity
            Not Before: Jan  2 19:08:15 2019 GMT
            Not After : Dec 27 19:08:15 2043 GMT
        Subject: CN=CSF4_1_sha256_secp521r1_v3_usr
        Subject Public Key Info:
            Public Key Algorithm: id-ecPublicKey
                Public-Key: (521 bit)
                pub:
                    04:00:2d:9c:3b:52:dd:89:36:2b:5b:25:25:7e:0b:
                    93:34:05:8b:1b:29:29:45:a6:00:1d:57:73:f4:d6:
                    dd:0f:ec:c2:e0:ac:8f:3a:8a:eb:e7:81:e0:78:d7:
                    f0:a6:ef:57:8f:a4:78:78:45:83:60:41:9a:45:7b:
                    1e:76:df:be:cb:c3:bb:00:46:da:3c:d4:63:f1:bc:
                    42:de:59:ed:db:31:3e:40:88:dd:ae:e9:1b:b8:26:
                    0b:78:1c:56:e7:d2:9a:53:46:61:3b:14:12:30:cb:
                    1c:2d:85:6e:5c:68:c6:3e:35:ae:88:99:7b:74:22:
                    c2:c1:40:8d:50:c0:f1:dd:0c:09:87:b0:2d
                ASN1 OID: secp521r1
                NIST CURVE: P-521
        X509v3 extensions:
            X509v3 Basic Constraints: 
                CA:FALSE
            Netscape Comment: 
                OpenSSL Generated Certificate
            X509v3 Subject Key Identifier: 
                C0:F8:1D:F7:B2:25:08:40:FB:EC:35:37:99:C0:33:1F:A7:3B:70:E8
            X509v3 Authority Key Identifier: 
                keyid:36:E8:91:C5:F9:13:6F:B8:E7:CC:CD:4C:DE:BC:4F:F8:65:C0:F6:EB

    Signature Algorithm: ecdsa-with-SHA256
         30:81:87:02:42:01:2a:68:36:78:bc:f0:1b:54:3d:e4:f6:f1:
         85:a5:78:db:76:58:9f:bc:1d:32:27:e1:54:18:c5:a8:e7:1f:
         71:23:cd:bf:7a:c3:e0:19:03:be:98:b2:70:d3:d2:59:9d:76:
         2c:52:fb:0c:7a:1e:04:15:07:24:89:d0:7b:3b:f6:02:cf:02:
         41:42:e9:ad:31:39:14:c5:71:d6:5a:17:5a:f2:bd:6a:2b:b8:
         8a:40:f8:9e:6a:03:26:81:52:5f:63:80:70:12:f3:83:20:6b:
         5f:31:86:46:f3:ad:20:f5:62:71:ab:20:ad:33:dc:77:3c:74:
         2d:19:8f:5b:e5:91:87:ea:fc:d0:3f:7e
-----BEGIN CERTIFICATE-----
MIICQzCCAaWgAwIBAgIEIpRJYzAKBggqhkjOPQQDAjAmMSQwIgYDVQQDDBtTUks0
X3NoYTI1Nl9zZWNwNTIxcjFfdjNfY2EwHhcNMTkwMTAyMTkwODE1WhcNNDMxMjI3
MTkwODE1WjApMScwJQYDVQQDDB5DU0Y0XzFfc2hhMjU2X3NlY3A1MjFyMV92M191
c3IwgZswEAYHKoZIzj0CAQYFK4EEACMDgYYABAAtnDtS3Yk2K1slJX4LkzQFixsp
KUWmAB1Xc/TW3Q/swuCsjzqK6+eB4HjX8KbvV4+keHhFg2BBmkV7HnbfvsvDuwBG
2jzUY/G8Qt5Z7dsxPkCI3a7pG7gmC3gcVufSmlNGYTsUEjDLHC2Fblxoxj41roiZ
e3QiwsFAjVDA8d0MCYewLaN7MHkwCQYDVR0TBAIwADAsBglghkgBhvhCAQ0EHxYd
T3BlblNTTCBHZW5lcmF0ZWQgQ2VydGlmaWNhdGUwHQYDVR0OBBYEFMD4HfeyJQhA
++w1N5nAMx+nO3DoMB8GA1UdIwQYMBaAFDbokcX5E2+458zNTN68T/hlwPbrMAoG
CCqGSM49BAMCA4GLADCBhwJCASpoNni88BtUPeT28YWleNt2WJ+8HTIn4VQYxajn
H3Ejzb96w+AZA76YsnDT0lmddixS+wx6HgQVBySJ0Hs79gLPAkFC6a0xORTFcdZa
F1ryvWoruIpA+J5qAyaBUl9jgHAS84Mga18xhkbzrSD1YnGrIK0z3Hc8dC0Zj1vl
kYfq/NA/fg==
-----END CERTIFICATE-----
