Certificate:
    Data:
        Version: 3 (0x2)
        Serial Number: 580143458 (0x22944962)
    Signature Algorithm: ecdsa-with-SHA256
        Issuer: CN=CA1_sha256_secp521r1_v3_ca
        Validity
            Not Before: Jan  2 19:08:15 2019 GMT
            Not After : Dec 27 19:08:15 2043 GMT
        Subject: CN=SRK4_sha256_secp521r1_v3_ca
        Subject Public Key Info:
            Public Key Algorithm: id-ecPublicKey
                Public-Key: (521 bit)
                pub:
                    04:01:1f:85:c5:c5:67:5f:6a:50:ec:ad:fa:c1:19:
                    a9:e4:46:ea:41:8f:b1:2e:32:28:38:48:bb:b8:88:
                    91:c7:82:df:91:e2:c8:33:db:2b:1e:a1:1e:ab:41:
                    fc:22:cf:d0:7d:e7:07:4e:0a:c0:00:95:01:55:46:
                    76:c5:0a:12:f6:e5:00:00:d7:5e:e1:bf:02:f9:93:
                    f1:8b:5a:af:c0:e6:0a:93:a3:07:63:6f:7e:63:7f:
                    bd:3d:95:98:e3:11:ef:4e:ba:4f:52:f6:3b:69:d2:
                    55:91:74:eb:1b:b4:e7:ca:97:27:31:f9:f5:9d:64:
                    32:18:95:6c:dc:55:9e:8d:7e:20:0c:42:09
                ASN1 OID: secp521r1
                NIST CURVE: P-521
        X509v3 extensions:
            X509v3 Subject Key Identifier: 
                36:E8:91:C5:F9:13:6F:B8:E7:CC:CD:4C:DE:BC:4F:F8:65:C0:F6:EB
            X509v3 Authority Key Identifier: 
                keyid:71:1B:92:1A:EC:FF:2A:E7:F0:6F:B6:CB:9C:E3:AB:AE:19:DF:6D:21
                DirName:/CN=CA1_sha256_secp521r1_v3_ca
                serial:9F:52:89:D2:57:F8:6B:56

            X509v3 Basic Constraints: critical
                CA:TRUE
            X509v3 Key Usage: 
                Certificate Sign
    Signature Algorithm: ecdsa-with-SHA256
         30:81:86:02:41:2d:aa:e9:05:7b:c7:26:b7:d2:04:e4:80:33:
         6a:0b:5f:8d:22:19:da:d0:b5:2f:50:e3:f4:70:85:e2:d2:19:
         4e:87:74:6f:e1:e2:51:e8:85:0c:5b:ff:2c:71:06:de:52:b4:
         dd:e7:bc:3e:d1:66:a8:9d:8b:80:78:2d:08:f8:e1:e6:02:41:
         2d:3a:20:41:3e:4d:11:e5:04:01:f4:a5:26:a2:f3:05:7a:44:
         a6:dd:ec:ee:e3:d5:91:25:dc:3b:b2:92:5f:ed:88:ad:05:83:
         97:e7:6f:0a:8d:2d:95:6c:ce:c9:47:f9:b1:1d:c5:b1:f5:a0:
         f8:a2:dd:8a:d8:d6:d6:cd:4b:35:22
-----BEGIN CERTIFICATE-----
MIICWzCCAb6gAwIBAgIEIpRJYjAKBggqhkjOPQQDAjAlMSMwIQYDVQQDFBpDQTFf
c2hhMjU2X3NlY3A1MjFyMV92M19jYTAeFw0xOTAxMDIxOTA4MTVaFw00MzEyMjcx
OTA4MTVaMCYxJDAiBgNVBAMMG1NSSzRfc2hhMjU2X3NlY3A1MjFyMV92M19jYTCB
mzAQBgcqhkjOPQIBBgUrgQQAIwOBhgAEAR+FxcVnX2pQ7K36wRmp5EbqQY+xLjIo
OEi7uIiRx4LfkeLIM9srHqEeq0H8Is/QfecHTgrAAJUBVUZ2xQoS9uUAANde4b8C
+ZPxi1qvwOYKk6MHY29+Y3+9PZWY4xHvTrpPUvY7adJVkXTrG7TnypcnMfn1nWQy
GJVs3FWejX4gDEIJo4GXMIGUMB0GA1UdDgQWBBQ26JHF+RNvuOfMzUzevE/4ZcD2
6zBVBgNVHSMETjBMgBRxG5Ia7P8q5/Bvtsuc46uuGd9tIaEppCcwJTEjMCEGA1UE
AxQaQ0ExX3NoYTI1Nl9zZWNwNTIxcjFfdjNfY2GCCQCfUonSV/hrVjAPBgNVHRMB
Af8EBTADAQH/MAsGA1UdDwQEAwICBDAKBggqhkjOPQQDAgOBigAwgYYCQS2q6QV7
xya30gTkgDNqC1+NIhna0LUvUOP0cIXi0hlOh3Rv4eJR6IUMW/8scQbeUrTd57w+
0WaonYuAeC0I+OHmAkEtOiBBPk0R5QQB9KUmovMFekSm3ezu49WRJdw7spJf7Yit
BYOX528KjS2VbM7JR/mxHcWx9aD4ot2K2NbWzUs1Ig==
-----END CERTIFICATE-----
