Certificate:
    Data:
        Version: 3 (0x2)
        Serial Number: 580143449 (0x22944959)
    Signature Algorithm: ecdsa-with-SHA256
        Issuer: CN=CA1_sha256_secp521r1_v3_ca
        Validity
            Not Before: Jan  2 19:08:15 2019 GMT
            Not After : Dec 27 19:08:15 2043 GMT
        Subject: CN=SRK1_sha256_secp521r1_v3_ca
        Subject Public Key Info:
            Public Key Algorithm: id-ecPublicKey
                Public-Key: (521 bit)
                pub:
                    04:00:d4:3b:1b:4f:9b:0e:b3:dc:b2:9d:ca:ba:99:
                    57:e6:a4:4f:91:bb:c8:06:8a:7f:42:99:6b:b1:92:
                    02:08:67:d8:f5:b4:5b:89:8f:fa:04:ad:8c:01:0a:
                    fa:2f:bb:c4:11:15:65:9a:5a:9d:a3:31:05:ea:7b:
                    78:ff:e0:47:a7:3c:06:00:5a:7c:2a:a8:39:98:f9:
                    8b:d1:bf:cc:8f:f7:3b:20:e2:24:27:e7:81:40:7a:
                    66:59:b4:18:bc:b4:6c:0c:0f:6f:f3:e3:8f:68:47:
                    65:33:16:ad:ca:4d:c6:07:d4:a9:4b:aa:34:76:df:
                    b1:81:f5:94:7b:81:1e:f3:22:55:b5:a3:de
                ASN1 OID: secp521r1
                NIST CURVE: P-521
        X509v3 extensions:
            X509v3 Subject Key Identifier: 
                C7:42:9A:DD:7C:C5:46:80:B3:94:D0:68:1C:79:B2:5A:0F:7E:A4:EB
            X509v3 Authority Key Identifier: 
                keyid:71:1B:92:1A:EC:FF:2A:E7:F0:6F:B6:CB:9C:E3:AB:AE:19:DF:6D:21
                DirName:/CN=CA1_sha256_secp521r1_v3_ca
                serial:9F:52:89:D2:57:F8:6B:56

            X509v3 Basic Constraints: critical
                CA:TRUE
            X509v3 Key Usage: 
                Certificate Sign
    Signature Algorithm: ecdsa-with-SHA256
         30:81:87:02:42:00:f8:5d:96:55:ca:90:66:70:9a:b9:c9:0f:
         db:e6:bd:42:5c:67:95:e0:0c:32:e8:b1:81:6e:e7:18:f2:75:
         5b:1c:24:00:08:0b:24:ff:8f:35:c3:cd:cc:b0:23:1d:60:ef:
         ed:1c:b1:a0:0b:1d:29:39:ea:8e:de:2a:dc:42:9f:4f:e6:02:
         41:10:b5:85:74:09:8f:c8:99:09:c2:10:5d:59:6e:3c:c4:fe:
         a8:01:6c:b2:01:4a:1a:ed:d5:35:32:2b:d4:97:bc:07:47:f0:
         47:44:43:a1:20:ce:68:fc:d0:4e:6e:db:c6:2a:07:74:4c:3d:
         89:ee:a4:67:15:eb:73:cf:28:f5:fe:9d
-----BEGIN CERTIFICATE-----
MIICXDCCAb6gAwIBAgIEIpRJWTAKBggqhkjOPQQDAjAlMSMwIQYDVQQDFBpDQTFf
c2hhMjU2X3NlY3A1MjFyMV92M19jYTAeFw0xOTAxMDIxOTA4MTVaFw00MzEyMjcx
OTA4MTVaMCYxJDAiBgNVBAMMG1NSSzFfc2hhMjU2X3NlY3A1MjFyMV92M19jYTCB
mzAQBgcqhkjOPQIBBgUrgQQAIwOBhgAEANQ7G0+bDrPcsp3KuplX5qRPkbvIBop/
QplrsZICCGfY9bRbiY/6BK2MAQr6L7vEERVlmlqdozEF6nt4/+BHpzwGAFp8Kqg5
mPmL0b/Mj/c7IOIkJ+eBQHpmWbQYvLRsDA9v8+OPaEdlMxatyk3GB9SpS6o0dt+x
gfWUe4Ee8yJVtaPeo4GXMIGUMB0GA1UdDgQWBBTHQprdfMVGgLOU0GgcebJaD36k
6zBVBgNVHSMETjBMgBRxG5Ia7P8q5/Bvtsuc46uuGd9tIaEppCcwJTEjMCEGA1UE
AxQaQ0ExX3NoYTI1Nl9zZWNwNTIxcjFfdjNfY2GCCQCfUonSV/hrVjAPBgNVHRMB
Af8EBTADAQH/MAsGA1UdDwQEAwICBDAKBggqhkjOPQQDAgOBiwAwgYcCQgD4XZZV
ypBmcJq5yQ/b5r1CXGeV4Awy6LGBbucY8nVbHCQACAsk/481w83MsCMdYO/tHLGg
Cx0pOeqO3ircQp9P5gJBELWFdAmPyJkJwhBdWW48xP6oAWyyAUoa7dU1MivUl7wH
R/BHREOhIM5o/NBObtvGKgd0TD2J7qRnFetzzyj1/p0=
-----END CERTIFICATE-----
